(dp1
S'46'
p2
(lp3
(dp4
S'difficult'
p5
I0
sS'pose'
p6
S'Left'
p7
sS'name'
p8
S'subadult_male'
p9
sS'bbox'
p10
(lp11
I1443
aI5554
aI1533
aI5644
asS'truncated'
p12
I1
sasS'48'
p13
(lp14
(dp15
g5
I0
sg6
S'Left'
p16
sg8
S'adult_female'
p17
sg10
(lp18
I411
aI3630
aI501
aI3720
asg12
I1
sa(dp19
g5
I0
sg6
S'Left'
p20
sg8
S'juvenile'
p21
sg10
(lp22
I588
aI4233
aI678
aI4323
asg12
I1
sa(dp23
g5
I0
sg6
S'Left'
p24
sg8
S'juvenile'
p25
sg10
(lp26
I667
aI4194
aI757
aI4284
asg12
I1
sa(dp27
g5
I0
sg6
S'Left'
p28
sg8
S'adult_female'
p29
sg10
(lp30
I671
aI3903
aI761
aI3993
asg12
I1
sa(dp31
g5
I0
sg6
S'Left'
p32
sg8
S'adult_female'
p33
sg10
(lp34
I692
aI3951
aI782
aI4041
asg12
I1
sa(dp35
g5
I0
sg6
S'Left'
p36
sg8
S'adult_female'
p37
sg10
(lp38
I694
aI4133
aI784
aI4223
asg12
I1
sa(dp39
g5
I0
sg6
S'Left'
p40
sg8
S'juvenile'
p41
sg10
(lp42
I717
aI3981
aI807
aI4071
asg12
I1
sa(dp43
g5
I0
sg6
S'Left'
p44
sg8
S'juvenile'
p45
sg10
(lp46
I717
aI4238
aI807
aI4328
asg12
I1
sa(dp47
g5
I0
sg6
S'Left'
p48
sg8
S'adult_female'
p49
sg10
(lp50
I728
aI3969
aI818
aI4059
asg12
I1
sa(dp51
g5
I0
sg6
S'Left'
p52
sg8
S'juvenile'
p53
sg10
(lp54
I734
aI4179
aI824
aI4269
asg12
I1
sa(dp55
g5
I0
sg6
S'Left'
p56
sg8
S'adult_female'
p57
sg10
(lp58
I736
aI4163
aI826
aI4253
asg12
I1
sa(dp59
g5
I0
sg6
S'Left'
p60
sg8
S'juvenile'
p61
sg10
(lp62
I737
aI4209
aI827
aI4299
asg12
I1
sa(dp63
g5
I0
sg6
S'Left'
p64
sg8
S'adult_female'
p65
sg10
(lp66
I753
aI4220
aI843
aI4310
asg12
I1
sa(dp67
g5
I0
sg6
S'Left'
p68
sg8
S'adult_female'
p69
sg10
(lp70
I755
aI4045
aI845
aI4135
asg12
I1
sa(dp71
g5
I0
sg6
S'Left'
p72
sg8
S'adult_female'
p73
sg10
(lp74
I755
aI4123
aI845
aI4213
asg12
I1
sa(dp75
g5
I0
sg6
S'Left'
p76
sg8
S'juvenile'
p77
sg10
(lp78
I759
aI4192
aI849
aI4282
asg12
I1
sa(dp79
g5
I0
sg6
S'Left'
p80
sg8
S'adult_female'
p81
sg10
(lp82
I768
aI4062
aI858
aI4152
asg12
I1
sa(dp83
g5
I0
sg6
S'Left'
p84
sg8
S'adult_female'
p85
sg10
(lp86
I790
aI4047
aI880
aI4137
asg12
I1
sa(dp87
g5
I0
sg6
S'Left'
p88
sg8
S'subadult_male'
p89
sg10
(lp90
I823
aI4165
aI913
aI4255
asg12
I1
sa(dp91
g5
I0
sg6
S'Left'
p92
sg8
S'adult_female'
p93
sg10
(lp94
I1022
aI4067
aI1112
aI4157
asg12
I1
sa(dp95
g5
I0
sg6
S'Left'
p96
sg8
S'juvenile'
p97
sg10
(lp98
I1212
aI4033
aI1302
aI4123
asg12
I1
sa(dp99
g5
I0
sg6
S'Left'
p100
sg8
S'adult_female'
p101
sg10
(lp102
I1252
aI4069
aI1342
aI4159
asg12
I1
sa(dp103
g5
I0
sg6
S'Left'
p104
sg8
S'adult_female'
p105
sg10
(lp106
I1275
aI4027
aI1365
aI4117
asg12
I1
sa(dp107
g5
I0
sg6
S'Left'
p108
sg8
S'adult_female'
p109
sg10
(lp110
I1284
aI4035
aI1374
aI4125
asg12
I1
sa(dp111
g5
I0
sg6
S'Left'
p112
sg8
S'adult_female'
p113
sg10
(lp114
I1338
aI4006
aI1428
aI4096
asg12
I1
sa(dp115
g5
I0
sg6
S'Left'
p116
sg8
S'adult_female'
p117
sg10
(lp118
I1361
aI4012
aI1451
aI4102
asg12
I1
sa(dp119
g5
I0
sg6
S'Left'
p120
sg8
S'adult_female'
p121
sg10
(lp122
I1407
aI4135
aI1497
aI4225
asg12
I1
sa(dp123
g5
I0
sg6
S'Left'
p124
sg8
S'juvenile'
p125
sg10
(lp126
I1412
aI4049
aI1502
aI4139
asg12
I1
sa(dp127
g5
I0
sg6
S'Left'
p128
sg8
S'adult_female'
p129
sg10
(lp130
I1421
aI4072
aI1511
aI4162
asg12
I1
sa(dp131
g5
I0
sg6
S'Left'
p132
sg8
S'adult_female'
p133
sg10
(lp134
I1422
aI4101
aI1512
aI4191
asg12
I1
sa(dp135
g5
I0
sg6
S'Left'
p136
sg8
S'adult_female'
p137
sg10
(lp138
I1522
aI3908
aI1612
aI3998
asg12
I1
sa(dp139
g5
I0
sg6
S'Left'
p140
sg8
S'adult_female'
p141
sg10
(lp142
I1591
aI3772
aI1681
aI3862
asg12
I1
sa(dp143
g5
I0
sg6
S'Left'
p144
sg8
S'subadult_male'
p145
sg10
(lp146
I1857
aI3684
aI1947
aI3774
asg12
I1
sa(dp147
g5
I0
sg6
S'Left'
p148
sg8
S'adult_female'
p149
sg10
(lp150
I1926
aI3472
aI2016
aI3562
asg12
I1
sa(dp151
g5
I0
sg6
S'Left'
p152
sg8
S'juvenile'
p153
sg10
(lp154
I1941
aI3418
aI2031
aI3508
asg12
I1
sa(dp155
g5
I0
sg6
S'Left'
p156
sg8
S'juvenile'
p157
sg10
(lp158
I1978
aI3552
aI2068
aI3642
asg12
I1
sa(dp159
g5
I0
sg6
S'Left'
p160
sg8
S'adult_female'
p161
sg10
(lp162
I1981
aI3439
aI2071
aI3529
asg12
I1
sa(dp163
g5
I0
sg6
S'Left'
p164
sg8
S'adult_female'
p165
sg10
(lp166
I1986
aI3596
aI2076
aI3686
asg12
I1
sa(dp167
g5
I0
sg6
S'Left'
p168
sg8
S'adult_female'
p169
sg10
(lp170
I1993
aI3413
aI2083
aI3503
asg12
I1
sa(dp171
g5
I0
sg6
S'Left'
p172
sg8
S'adult_male'
p173
sg10
(lp174
I2008
aI3389
aI2098
aI3479
asg12
I1
sa(dp175
g5
I0
sg6
S'Left'
p176
sg8
S'adult_female'
p177
sg10
(lp178
I2012
aI3525
aI2102
aI3615
asg12
I1
sa(dp179
g5
I0
sg6
S'Left'
p180
sg8
S'juvenile'
p181
sg10
(lp182
I2022
aI3458
aI2112
aI3548
asg12
I1
sa(dp183
g5
I0
sg6
S'Left'
p184
sg8
S'juvenile'
p185
sg10
(lp186
I2033
aI3343
aI2123
aI3433
asg12
I1
sa(dp187
g5
I0
sg6
S'Left'
p188
sg8
S'adult_female'
p189
sg10
(lp190
I2043
aI3521
aI2133
aI3611
asg12
I1
sa(dp191
g5
I0
sg6
S'Left'
p192
sg8
S'juvenile'
p193
sg10
(lp194
I2044
aI3400
aI2134
aI3490
asg12
I1
sa(dp195
g5
I0
sg6
S'Left'
p196
sg8
S'adult_female'
p197
sg10
(lp198
I2045
aI3578
aI2135
aI3668
asg12
I1
sa(dp199
g5
I0
sg6
S'Left'
p200
sg8
S'juvenile'
p201
sg10
(lp202
I2072
aI3574
aI2162
aI3664
asg12
I1
sa(dp203
g5
I0
sg6
S'Left'
p204
sg8
S'adult_female'
p205
sg10
(lp206
I2074
aI3820
aI2164
aI3910
asg12
I1
sa(dp207
g5
I0
sg6
S'Left'
p208
sg8
S'adult_female'
p209
sg10
(lp210
I2080
aI3247
aI2170
aI3337
asg12
I1
sa(dp211
g5
I0
sg6
S'Left'
p212
sg8
S'juvenile'
p213
sg10
(lp214
I2081
aI3776
aI2171
aI3866
asg12
I1
sa(dp215
g5
I0
sg6
S'Left'
p216
sg8
S'adult_female'
p217
sg10
(lp218
I2090
aI3638
aI2180
aI3728
asg12
I1
sa(dp219
g5
I0
sg6
S'Left'
p220
sg8
S'adult_female'
p221
sg10
(lp222
I2111
aI3639
aI2201
aI3729
asg12
I1
sa(dp223
g5
I0
sg6
S'Left'
p224
sg8
S'juvenile'
p225
sg10
(lp226
I2111
aI3776
aI2201
aI3866
asg12
I1
sa(dp227
g5
I0
sg6
S'Left'
p228
sg8
S'adult_female'
p229
sg10
(lp230
I2112
aI3740
aI2202
aI3830
asg12
I1
sa(dp231
g5
I0
sg6
S'Left'
p232
sg8
S'adult_female'
p233
sg10
(lp234
I2134
aI3698
aI2224
aI3788
asg12
I1
sa(dp235
g5
I0
sg6
S'Left'
p236
sg8
S'adult_female'
p237
sg10
(lp238
I2139
aI3640
aI2229
aI3730
asg12
I1
sa(dp239
g5
I0
sg6
S'Left'
p240
sg8
S'adult_female'
p241
sg10
(lp242
I2149
aI3720
aI2239
aI3810
asg12
I1
sa(dp243
g5
I0
sg6
S'Left'
p244
sg8
S'adult_female'
p245
sg10
(lp246
I2152
aI3519
aI2242
aI3609
asg12
I1
sa(dp247
g5
I0
sg6
S'Left'
p248
sg8
S'adult_female'
p249
sg10
(lp250
I2168
aI3640
aI2258
aI3730
asg12
I1
sa(dp251
g5
I0
sg6
S'Left'
p252
sg8
S'adult_female'
p253
sg10
(lp254
I2169
aI3555
aI2259
aI3645
asg12
I1
sa(dp255
g5
I0
sg6
S'Left'
p256
sg8
S'adult_female'
p257
sg10
(lp258
I2207
aI3772
aI2297
aI3862
asg12
I1
sa(dp259
g5
I0
sg6
S'Left'
p260
sg8
S'adult_female'
p261
sg10
(lp262
I2209
aI3743
aI2299
aI3833
asg12
I1
sa(dp263
g5
I0
sg6
S'Left'
p264
sg8
S'adult_female'
p265
sg10
(lp266
I2210
aI3546
aI2300
aI3636
asg12
I1
sa(dp267
g5
I0
sg6
S'Left'
p268
sg8
S'adult_male'
p269
sg10
(lp270
I2223
aI3716
aI2313
aI3806
asg12
I1
sa(dp271
g5
I0
sg6
S'Left'
p272
sg8
S'juvenile'
p273
sg10
(lp274
I2230
aI3673
aI2320
aI3763
asg12
I1
sa(dp275
g5
I0
sg6
S'Left'
p276
sg8
S'adult_female'
p277
sg10
(lp278
I2233
aI3576
aI2323
aI3666
asg12
I1
sa(dp279
g5
I0
sg6
S'Left'
p280
sg8
S'juvenile'
p281
sg10
(lp282
I2233
aI3684
aI2323
aI3774
asg12
I1
sa(dp283
g5
I0
sg6
S'Left'
p284
sg8
S'adult_female'
p285
sg10
(lp286
I2241
aI3753
aI2331
aI3843
asg12
I1
sa(dp287
g5
I0
sg6
S'Left'
p288
sg8
S'adult_female'
p289
sg10
(lp290
I2284
aI3646
aI2374
aI3736
asg12
I1
sa(dp291
g5
I0
sg6
S'Left'
p292
sg8
S'adult_female'
p293
sg10
(lp294
I2285
aI3604
aI2375
aI3694
asg12
I1
sa(dp295
g5
I0
sg6
S'Left'
p296
sg8
S'adult_female'
p297
sg10
(lp298
I2286
aI3559
aI2376
aI3649
asg12
I1
sa(dp299
g5
I0
sg6
S'Left'
p300
sg8
S'adult_female'
p301
sg10
(lp302
I2294
aI3686
aI2384
aI3776
asg12
I1
sa(dp303
g5
I0
sg6
S'Left'
p304
sg8
S'adult_female'
p305
sg10
(lp306
I2314
aI3636
aI2404
aI3726
asg12
I1
sa(dp307
g5
I0
sg6
S'Left'
p308
sg8
S'juvenile'
p309
sg10
(lp310
I2315
aI3478
aI2405
aI3568
asg12
I1
sa(dp311
g5
I0
sg6
S'Left'
p312
sg8
S'adult_female'
p313
sg10
(lp314
I2323
aI3475
aI2413
aI3565
asg12
I1
sa(dp315
g5
I0
sg6
S'Left'
p316
sg8
S'adult_female'
p317
sg10
(lp318
I2327
aI3693
aI2417
aI3783
asg12
I1
sa(dp319
g5
I0
sg6
S'Left'
p320
sg8
S'adult_female'
p321
sg10
(lp322
I2333
aI3575
aI2423
aI3665
asg12
I1
sa(dp323
g5
I0
sg6
S'Left'
p324
sg8
S'adult_female'
p325
sg10
(lp326
I2383
aI3671
aI2473
aI3761
asg12
I1
sa(dp327
g5
I0
sg6
S'Left'
p328
sg8
S'juvenile'
p329
sg10
(lp330
I2419
aI3606
aI2509
aI3696
asg12
I1
sa(dp331
g5
I0
sg6
S'Left'
p332
sg8
S'adult_female'
p333
sg10
(lp334
I2447
aI3600
aI2537
aI3690
asg12
I1
sa(dp335
g5
I0
sg6
S'Left'
p336
sg8
S'juvenile'
p337
sg10
(lp338
I2450
aI3486
aI2540
aI3576
asg12
I1
sa(dp339
g5
I0
sg6
S'Left'
p340
sg8
S'adult_female'
p341
sg10
(lp342
I2467
aI3553
aI2557
aI3643
asg12
I1
sa(dp343
g5
I0
sg6
S'Left'
p344
sg8
S'adult_female'
p345
sg10
(lp346
I2479
aI3450
aI2569
aI3540
asg12
I1
sa(dp347
g5
I0
sg6
S'Left'
p348
sg8
S'adult_female'
p349
sg10
(lp350
I2480
aI3236
aI2570
aI3326
asg12
I1
sa(dp351
g5
I0
sg6
S'Left'
p352
sg8
S'adult_female'
p353
sg10
(lp354
I2487
aI3592
aI2577
aI3682
asg12
I1
sa(dp355
g5
I0
sg6
S'Left'
p356
sg8
S'juvenile'
p357
sg10
(lp358
I2490
aI3557
aI2580
aI3647
asg12
I1
sa(dp359
g5
I0
sg6
S'Left'
p360
sg8
S'adult_female'
p361
sg10
(lp362
I2527
aI3216
aI2617
aI3306
asg12
I1
sa(dp363
g5
I0
sg6
S'Left'
p364
sg8
S'adult_female'
p365
sg10
(lp366
I2533
aI3425
aI2623
aI3515
asg12
I1
sa(dp367
g5
I0
sg6
S'Left'
p368
sg8
S'adult_female'
p369
sg10
(lp370
I2542
aI3259
aI2632
aI3349
asg12
I1
sa(dp371
g5
I0
sg6
S'Left'
p372
sg8
S'subadult_male'
p373
sg10
(lp374
I2562
aI3494
aI2652
aI3584
asg12
I1
sa(dp375
g5
I0
sg6
S'Left'
p376
sg8
S'adult_female'
p377
sg10
(lp378
I2609
aI3133
aI2699
aI3223
asg12
I1
sa(dp379
g5
I0
sg6
S'Left'
p380
sg8
S'juvenile'
p381
sg10
(lp382
I2950
aI860
aI3040
aI950
asg12
I1
sasS'41'
p383
(lp384
(dp385
g5
I0
sg6
S'Left'
p386
sg8
S'adult_male'
p387
sg10
(lp388
I948
aI3173
aI1038
aI3263
asg12
I1
sa(dp389
g5
I0
sg6
S'Left'
p390
sg8
S'adult_female'
p391
sg10
(lp392
I1117
aI3482
aI1207
aI3572
asg12
I1
sa(dp393
g5
I0
sg6
S'Left'
p394
sg8
S'adult_female'
p395
sg10
(lp396
I1123
aI3311
aI1213
aI3401
asg12
I1
sa(dp397
g5
I0
sg6
S'Left'
p398
sg8
S'juvenile'
p399
sg10
(lp400
I1125
aI3440
aI1215
aI3530
asg12
I1
sa(dp401
g5
I0
sg6
S'Left'
p402
sg8
S'adult_female'
p403
sg10
(lp404
I1127
aI3462
aI1217
aI3552
asg12
I1
sa(dp405
g5
I0
sg6
S'Left'
p406
sg8
S'adult_female'
p407
sg10
(lp408
I1129
aI3133
aI1219
aI3223
asg12
I1
sa(dp409
g5
I0
sg6
S'Left'
p410
sg8
S'adult_female'
p411
sg10
(lp412
I1144
aI3487
aI1234
aI3577
asg12
I1
sa(dp413
g5
I0
sg6
S'Left'
p414
sg8
S'pup'
p415
sg10
(lp416
I1146
aI3066
aI1236
aI3156
asg12
I1
sa(dp417
g5
I0
sg6
S'Left'
p418
sg8
S'pup'
p419
sg10
(lp420
I1164
aI3136
aI1254
aI3226
asg12
I1
sa(dp421
g5
I0
sg6
S'Left'
p422
sg8
S'pup'
p423
sg10
(lp424
I1173
aI3081
aI1263
aI3171
asg12
I1
sa(dp425
g5
I0
sg6
S'Left'
p426
sg8
S'juvenile'
p427
sg10
(lp428
I1181
aI3321
aI1271
aI3411
asg12
I1
sa(dp429
g5
I0
sg6
S'Left'
p430
sg8
S'adult_female'
p431
sg10
(lp432
I1191
aI3166
aI1281
aI3256
asg12
I1
sa(dp433
g5
I0
sg6
S'Left'
p434
sg8
S'adult_male'
p435
sg10
(lp436
I1192
aI3443
aI1282
aI3533
asg12
I1
sa(dp437
g5
I0
sg6
S'Left'
p438
sg8
S'adult_male'
p439
sg10
(lp440
I1201
aI3014
aI1291
aI3104
asg12
I1
sa(dp441
g5
I0
sg6
S'Left'
p442
sg8
S'pup'
p443
sg10
(lp444
I1219
aI3174
aI1309
aI3264
asg12
I1
sa(dp445
g5
I0
sg6
S'Left'
p446
sg8
S'adult_female'
p447
sg10
(lp448
I1219
aI3256
aI1309
aI3346
asg12
I1
sa(dp449
g5
I0
sg6
S'Left'
p450
sg8
S'juvenile'
p451
sg10
(lp452
I1245
aI3369
aI1335
aI3459
asg12
I1
sa(dp453
g5
I0
sg6
S'Left'
p454
sg8
S'pup'
p455
sg10
(lp456
I1251
aI3018
aI1341
aI3108
asg12
I1
sa(dp457
g5
I0
sg6
S'Left'
p458
sg8
S'pup'
p459
sg10
(lp460
I1266
aI2985
aI1356
aI3075
asg12
I1
sa(dp461
g5
I0
sg6
S'Left'
p462
sg8
S'adult_female'
p463
sg10
(lp464
I1275
aI3019
aI1365
aI3109
asg12
I1
sa(dp465
g5
I0
sg6
S'Left'
p466
sg8
S'adult_male'
p467
sg10
(lp468
I1284
aI3384
aI1374
aI3474
asg12
I1
sa(dp469
g5
I0
sg6
S'Left'
p470
sg8
S'adult_female'
p471
sg10
(lp472
I1319
aI3160
aI1409
aI3250
asg12
I1
sa(dp473
g5
I0
sg6
S'Left'
p474
sg8
S'adult_female'
p475
sg10
(lp476
I1326
aI3375
aI1416
aI3465
asg12
I1
sa(dp477
g5
I0
sg6
S'Left'
p478
sg8
S'adult_female'
p479
sg10
(lp480
I1330
aI3456
aI1420
aI3546
asg12
I1
sa(dp481
g5
I0
sg6
S'Left'
p482
sg8
S'adult_female'
p483
sg10
(lp484
I1335
aI3422
aI1425
aI3512
asg12
I1
sa(dp485
g5
I0
sg6
S'Left'
p486
sg8
S'adult_female'
p487
sg10
(lp488
I1338
aI3393
aI1428
aI3483
asg12
I1
sa(dp489
g5
I0
sg6
S'Left'
p490
sg8
S'adult_female'
p491
sg10
(lp492
I1345
aI3408
aI1435
aI3498
asg12
I1
sa(dp493
g5
I0
sg6
S'Left'
p494
sg8
S'juvenile'
p495
sg10
(lp496
I1346
aI3343
aI1436
aI3433
asg12
I1
sa(dp497
g5
I0
sg6
S'Left'
p498
sg8
S'juvenile'
p499
sg10
(lp500
I1361
aI3379
aI1451
aI3469
asg12
I1
sa(dp501
g5
I0
sg6
S'Left'
p502
sg8
S'juvenile'
p503
sg10
(lp504
I1377
aI3441
aI1467
aI3531
asg12
I1
sa(dp505
g5
I0
sg6
S'Left'
p506
sg8
S'pup'
p507
sg10
(lp508
I1380
aI3011
aI1470
aI3101
asg12
I1
sa(dp509
g5
I0
sg6
S'Left'
p510
sg8
S'pup'
p511
sg10
(lp512
I1380
aI3325
aI1470
aI3415
asg12
I1
sa(dp513
g5
I0
sg6
S'Left'
p514
sg8
S'adult_female'
p515
sg10
(lp516
I1387
aI3203
aI1477
aI3293
asg12
I1
sa(dp517
g5
I0
sg6
S'Left'
p518
sg8
S'pup'
p519
sg10
(lp520
I1395
aI3162
aI1485
aI3252
asg12
I1
sa(dp521
g5
I0
sg6
S'Left'
p522
sg8
S'adult_female'
p523
sg10
(lp524
I1406
aI3352
aI1496
aI3442
asg12
I1
sa(dp525
g5
I0
sg6
S'Left'
p526
sg8
S'juvenile'
p527
sg10
(lp528
I1436
aI3380
aI1526
aI3470
asg12
I1
sa(dp529
g5
I0
sg6
S'Left'
p530
sg8
S'pup'
p531
sg10
(lp532
I1438
aI3292
aI1528
aI3382
asg12
I1
sa(dp533
g5
I0
sg6
S'Left'
p534
sg8
S'adult_female'
p535
sg10
(lp536
I1451
aI3314
aI1541
aI3404
asg12
I1
sa(dp537
g5
I0
sg6
S'Left'
p538
sg8
S'pup'
p539
sg10
(lp540
I1494
aI3236
aI1584
aI3326
asg12
I1
sa(dp541
g5
I0
sg6
S'Left'
p542
sg8
S'adult_female'
p543
sg10
(lp544
I1495
aI3253
aI1585
aI3343
asg12
I1
sa(dp545
g5
I0
sg6
S'Left'
p546
sg8
S'juvenile'
p547
sg10
(lp548
I1593
aI3222
aI1683
aI3312
asg12
I1
sa(dp549
g5
I0
sg6
S'Left'
p550
sg8
S'adult_male'
p551
sg10
(lp552
I1593
aI3314
aI1683
aI3404
asg12
I1
sa(dp553
g5
I0
sg6
S'Left'
p554
sg8
S'adult_female'
p555
sg10
(lp556
I1616
aI3196
aI1706
aI3286
asg12
I1
sa(dp557
g5
I0
sg6
S'Left'
p558
sg8
S'adult_female'
p559
sg10
(lp560
I1626
aI3246
aI1716
aI3336
asg12
I1
sa(dp561
g5
I0
sg6
S'Left'
p562
sg8
S'pup'
p563
sg10
(lp564
I1643
aI3216
aI1733
aI3306
asg12
I1
sa(dp565
g5
I0
sg6
S'Left'
p566
sg8
S'adult_female'
p567
sg10
(lp568
I1657
aI2950
aI1747
aI3040
asg12
I1
sa(dp569
g5
I0
sg6
S'Left'
p570
sg8
S'adult_female'
p571
sg10
(lp572
I1659
aI3011
aI1749
aI3101
asg12
I1
sa(dp573
g5
I0
sg6
S'Left'
p574
sg8
S'adult_female'
p575
sg10
(lp576
I1660
aI3284
aI1750
aI3374
asg12
I1
sa(dp577
g5
I0
sg6
S'Left'
p578
sg8
S'adult_female'
p579
sg10
(lp580
I1674
aI3252
aI1764
aI3342
asg12
I1
sa(dp581
g5
I0
sg6
S'Left'
p582
sg8
S'pup'
p583
sg10
(lp584
I1677
aI3195
aI1767
aI3285
asg12
I1
sa(dp585
g5
I0
sg6
S'Left'
p586
sg8
S'adult_female'
p587
sg10
(lp588
I1683
aI3218
aI1773
aI3308
asg12
I1
sa(dp589
g5
I0
sg6
S'Left'
p590
sg8
S'adult_female'
p591
sg10
(lp592
I1690
aI3265
aI1780
aI3355
asg12
I1
sa(dp593
g5
I0
sg6
S'Left'
p594
sg8
S'adult_female'
p595
sg10
(lp596
I1693
aI3132
aI1783
aI3222
asg12
I1
sa(dp597
g5
I0
sg6
S'Left'
p598
sg8
S'pup'
p599
sg10
(lp600
I1696
aI3111
aI1786
aI3201
asg12
I1
sa(dp601
g5
I0
sg6
S'Left'
p602
sg8
S'pup'
p603
sg10
(lp604
I1713
aI3226
aI1803
aI3316
asg12
I1
sa(dp605
g5
I0
sg6
S'Left'
p606
sg8
S'adult_female'
p607
sg10
(lp608
I1738
aI3226
aI1828
aI3316
asg12
I1
sa(dp609
g5
I0
sg6
S'Left'
p610
sg8
S'adult_female'
p611
sg10
(lp612
I1743
aI3156
aI1833
aI3246
asg12
I1
sa(dp613
g5
I0
sg6
S'Left'
p614
sg8
S'adult_female'
p615
sg10
(lp616
I1746
aI3118
aI1836
aI3208
asg12
I1
sa(dp617
g5
I0
sg6
S'Left'
p618
sg8
S'adult_female'
p619
sg10
(lp620
I1752
aI2984
aI1842
aI3074
asg12
I1
sa(dp621
g5
I0
sg6
S'Left'
p622
sg8
S'pup'
p623
sg10
(lp624
I1785
aI2976
aI1875
aI3066
asg12
I1
sa(dp625
g5
I0
sg6
S'Left'
p626
sg8
S'adult_male'
p627
sg10
(lp628
I1791
aI2871
aI1881
aI2961
asg12
I1
sa(dp629
g5
I0
sg6
S'Left'
p630
sg8
S'pup'
p631
sg10
(lp632
I1795
aI3186
aI1885
aI3276
asg12
I1
sa(dp633
g5
I0
sg6
S'Left'
p634
sg8
S'juvenile'
p635
sg10
(lp636
I1796
aI3154
aI1886
aI3244
asg12
I1
sa(dp637
g5
I0
sg6
S'Left'
p638
sg8
S'adult_female'
p639
sg10
(lp640
I1798
aI3102
aI1888
aI3192
asg12
I1
sa(dp641
g5
I0
sg6
S'Left'
p642
sg8
S'adult_female'
p643
sg10
(lp644
I1799
aI3202
aI1889
aI3292
asg12
I1
sa(dp645
g5
I0
sg6
S'Left'
p646
sg8
S'pup'
p647
sg10
(lp648
I1814
aI3230
aI1904
aI3320
asg12
I1
sa(dp649
g5
I0
sg6
S'Left'
p650
sg8
S'pup'
p651
sg10
(lp652
I1824
aI3082
aI1914
aI3172
asg12
I1
sa(dp653
g5
I0
sg6
S'Left'
p654
sg8
S'adult_female'
p655
sg10
(lp656
I1838
aI3158
aI1928
aI3248
asg12
I1
sa(dp657
g5
I0
sg6
S'Left'
p658
sg8
S'pup'
p659
sg10
(lp660
I1847
aI3053
aI1937
aI3143
asg12
I1
sa(dp661
g5
I0
sg6
S'Left'
p662
sg8
S'pup'
p663
sg10
(lp664
I1849
aI3135
aI1939
aI3225
asg12
I1
sa(dp665
g5
I0
sg6
S'Left'
p666
sg8
S'adult_female'
p667
sg10
(lp668
I1857
aI3243
aI1947
aI3333
asg12
I1
sa(dp669
g5
I0
sg6
S'Left'
p670
sg8
S'adult_female'
p671
sg10
(lp672
I1860
aI3198
aI1950
aI3288
asg12
I1
sa(dp673
g5
I0
sg6
S'Left'
p674
sg8
S'adult_female'
p675
sg10
(lp676
I1863
aI3090
aI1953
aI3180
asg12
I1
sa(dp677
g5
I0
sg6
S'Left'
p678
sg8
S'pup'
p679
sg10
(lp680
I1872
aI3182
aI1962
aI3272
asg12
I1
sa(dp681
g5
I0
sg6
S'Left'
p682
sg8
S'juvenile'
p683
sg10
(lp684
I1875
aI3144
aI1965
aI3234
asg12
I1
sa(dp685
g5
I0
sg6
S'Left'
p686
sg8
S'adult_female'
p687
sg10
(lp688
I1884
aI3211
aI1974
aI3301
asg12
I1
sa(dp689
g5
I0
sg6
S'Left'
p690
sg8
S'juvenile'
p691
sg10
(lp692
I1889
aI3248
aI1979
aI3338
asg12
I1
sa(dp693
g5
I0
sg6
S'Left'
p694
sg8
S'pup'
p695
sg10
(lp696
I1891
aI3106
aI1981
aI3196
asg12
I1
sa(dp697
g5
I0
sg6
S'Left'
p698
sg8
S'pup'
p699
sg10
(lp700
I1918
aI3142
aI2008
aI3232
asg12
I1
sa(dp701
g5
I0
sg6
S'Left'
p702
sg8
S'adult_male'
p703
sg10
(lp704
I1923
aI2731
aI2013
aI2821
asg12
I1
sa(dp705
g5
I0
sg6
S'Left'
p706
sg8
S'pup'
p707
sg10
(lp708
I1931
aI3062
aI2021
aI3152
asg12
I1
sa(dp709
g5
I0
sg6
S'Left'
p710
sg8
S'adult_female'
p711
sg10
(lp712
I1933
aI3025
aI2023
aI3115
asg12
I1
sa(dp713
g5
I0
sg6
S'Left'
p714
sg8
S'pup'
p715
sg10
(lp716
I1937
aI3215
aI2027
aI3305
asg12
I1
sa(dp717
g5
I0
sg6
S'Left'
p718
sg8
S'adult_female'
p719
sg10
(lp720
I1945
aI3196
aI2035
aI3286
asg12
I1
sa(dp721
g5
I0
sg6
S'Left'
p722
sg8
S'adult_female'
p723
sg10
(lp724
I1947
aI3090
aI2037
aI3180
asg12
I1
sa(dp725
g5
I0
sg6
S'Left'
p726
sg8
S'pup'
p727
sg10
(lp728
I1966
aI2227
aI2056
aI2317
asg12
I1
sa(dp729
g5
I0
sg6
S'Left'
p730
sg8
S'adult_female'
p731
sg10
(lp732
I1967
aI3124
aI2057
aI3214
asg12
I1
sa(dp733
g5
I0
sg6
S'Left'
p734
sg8
S'pup'
p735
sg10
(lp736
I1968
aI3152
aI2058
aI3242
asg12
I1
sa(dp737
g5
I0
sg6
S'Left'
p738
sg8
S'pup'
p739
sg10
(lp740
I1971
aI3140
aI2061
aI3230
asg12
I1
sa(dp741
g5
I0
sg6
S'Left'
p742
sg8
S'adult_female'
p743
sg10
(lp744
I1981
aI2992
aI2071
aI3082
asg12
I1
sa(dp745
g5
I0
sg6
S'Left'
p746
sg8
S'juvenile'
p747
sg10
(lp748
I1983
aI2976
aI2073
aI3066
asg12
I1
sa(dp749
g5
I0
sg6
S'Left'
p750
sg8
S'adult_female'
p751
sg10
(lp752
I1986
aI3149
aI2076
aI3239
asg12
I1
sa(dp753
g5
I0
sg6
S'Left'
p754
sg8
S'adult_female'
p755
sg10
(lp756
I1988
aI3084
aI2078
aI3174
asg12
I1
sa(dp757
g5
I0
sg6
S'Left'
p758
sg8
S'pup'
p759
sg10
(lp760
I1992
aI3008
aI2082
aI3098
asg12
I1
sa(dp761
g5
I0
sg6
S'Left'
p762
sg8
S'pup'
p763
sg10
(lp764
I1993
aI2443
aI2083
aI2533
asg12
I1
sa(dp765
g5
I0
sg6
S'Left'
p766
sg8
S'pup'
p767
sg10
(lp768
I1999
aI3039
aI2089
aI3129
asg12
I1
sa(dp769
g5
I0
sg6
S'Left'
p770
sg8
S'pup'
p771
sg10
(lp772
I2004
aI2298
aI2094
aI2388
asg12
I1
sa(dp773
g5
I0
sg6
S'Left'
p774
sg8
S'pup'
p775
sg10
(lp776
I2005
aI3096
aI2095
aI3186
asg12
I1
sa(dp777
g5
I0
sg6
S'Left'
p778
sg8
S'adult_female'
p779
sg10
(lp780
I2017
aI3114
aI2107
aI3204
asg12
I1
sa(dp781
g5
I0
sg6
S'Left'
p782
sg8
S'pup'
p783
sg10
(lp784
I2022
aI3087
aI2112
aI3177
asg12
I1
sa(dp785
g5
I0
sg6
S'Left'
p786
sg8
S'adult_female'
p787
sg10
(lp788
I2038
aI3003
aI2128
aI3093
asg12
I1
sa(dp789
g5
I0
sg6
S'Left'
p790
sg8
S'adult_female'
p791
sg10
(lp792
I2040
aI3138
aI2130
aI3228
asg12
I1
sa(dp793
g5
I0
sg6
S'Left'
p794
sg8
S'pup'
p795
sg10
(lp796
I2043
aI3042
aI2133
aI3132
asg12
I1
sa(dp797
g5
I0
sg6
S'Left'
p798
sg8
S'adult_male'
p799
sg10
(lp800
I2045
aI3212
aI2135
aI3302
asg12
I1
sa(dp801
g5
I0
sg6
S'Left'
p802
sg8
S'pup'
p803
sg10
(lp804
I2049
aI2455
aI2139
aI2545
asg12
I1
sa(dp805
g5
I0
sg6
S'Left'
p806
sg8
S'pup'
p807
sg10
(lp808
I2056
aI3005
aI2146
aI3095
asg12
I1
sa(dp809
g5
I0
sg6
S'Left'
p810
sg8
S'pup'
p811
sg10
(lp812
I2069
aI3068
aI2159
aI3158
asg12
I1
sa(dp813
g5
I0
sg6
S'Left'
p814
sg8
S'adult_female'
p815
sg10
(lp816
I2069
aI3129
aI2159
aI3219
asg12
I1
sa(dp817
g5
I0
sg6
S'Left'
p818
sg8
S'pup'
p819
sg10
(lp820
I2070
aI3101
aI2160
aI3191
asg12
I1
sa(dp821
g5
I0
sg6
S'Left'
p822
sg8
S'adult_female'
p823
sg10
(lp824
I2094
aI3075
aI2184
aI3165
asg12
I1
sa(dp825
g5
I0
sg6
S'Left'
p826
sg8
S'adult_female'
p827
sg10
(lp828
I2138
aI2872
aI2228
aI2962
asg12
I1
sa(dp829
g5
I0
sg6
S'Left'
p830
sg8
S'adult_female'
p831
sg10
(lp832
I2142
aI3136
aI2232
aI3226
asg12
I1
sa(dp833
g5
I0
sg6
S'Left'
p834
sg8
S'adult_female'
p835
sg10
(lp836
I2145
aI2914
aI2235
aI3004
asg12
I1
sa(dp837
g5
I0
sg6
S'Left'
p838
sg8
S'juvenile'
p839
sg10
(lp840
I2149
aI3073
aI2239
aI3163
asg12
I1
sa(dp841
g5
I0
sg6
S'Left'
p842
sg8
S'juvenile'
p843
sg10
(lp844
I2153
aI3099
aI2243
aI3189
asg12
I1
sa(dp845
g5
I0
sg6
S'Left'
p846
sg8
S'pup'
p847
sg10
(lp848
I2157
aI3056
aI2247
aI3146
asg12
I1
sa(dp849
g5
I0
sg6
S'Left'
p850
sg8
S'adult_female'
p851
sg10
(lp852
I2168
aI3009
aI2258
aI3099
asg12
I1
sa(dp853
g5
I0
sg6
S'Left'
p854
sg8
S'pup'
p855
sg10
(lp856
I2175
aI3065
aI2265
aI3155
asg12
I1
sa(dp857
g5
I0
sg6
S'Left'
p858
sg8
S'adult_female'
p859
sg10
(lp860
I2175
aI3086
aI2265
aI3176
asg12
I1
sa(dp861
g5
I0
sg6
S'Left'
p862
sg8
S'adult_female'
p863
sg10
(lp864
I2186
aI2935
aI2276
aI3025
asg12
I1
sa(dp865
g5
I0
sg6
S'Left'
p866
sg8
S'juvenile'
p867
sg10
(lp868
I2190
aI2900
aI2280
aI2990
asg12
I1
sa(dp869
g5
I0
sg6
S'Left'
p870
sg8
S'juvenile'
p871
sg10
(lp872
I2195
aI2970
aI2285
aI3060
asg12
I1
sa(dp873
g5
I0
sg6
S'Left'
p874
sg8
S'pup'
p875
sg10
(lp876
I2202
aI3128
aI2292
aI3218
asg12
I1
sa(dp877
g5
I0
sg6
S'Left'
p878
sg8
S'adult_female'
p879
sg10
(lp880
I2207
aI3029
aI2297
aI3119
asg12
I1
sa(dp881
g5
I0
sg6
S'Left'
p882
sg8
S'adult_female'
p883
sg10
(lp884
I2219
aI3124
aI2309
aI3214
asg12
I1
sa(dp885
g5
I0
sg6
S'Left'
p886
sg8
S'adult_female'
p887
sg10
(lp888
I2233
aI2864
aI2323
aI2954
asg12
I1
sa(dp889
g5
I0
sg6
S'Left'
p890
sg8
S'adult_female'
p891
sg10
(lp892
I2234
aI3063
aI2324
aI3153
asg12
I1
sa(dp893
g5
I0
sg6
S'Left'
p894
sg8
S'pup'
p895
sg10
(lp896
I2252
aI2963
aI2342
aI3053
asg12
I1
sa(dp897
g5
I0
sg6
S'Left'
p898
sg8
S'adult_female'
p899
sg10
(lp900
I2260
aI3098
aI2350
aI3188
asg12
I1
sa(dp901
g5
I0
sg6
S'Left'
p902
sg8
S'adult_female'
p903
sg10
(lp904
I2261
aI2798
aI2351
aI2888
asg12
I1
sa(dp905
g5
I0
sg6
S'Left'
p906
sg8
S'adult_female'
p907
sg10
(lp908
I2263
aI3001
aI2353
aI3091
asg12
I1
sa(dp909
g5
I0
sg6
S'Left'
p910
sg8
S'adult_male'
p911
sg10
(lp912
I2269
aI2249
aI2359
aI2339
asg12
I1
sa(dp913
g5
I0
sg6
S'Left'
p914
sg8
S'adult_female'
p915
sg10
(lp916
I2285
aI2888
aI2375
aI2978
asg12
I1
sa(dp917
g5
I0
sg6
S'Left'
p918
sg8
S'adult_female'
p919
sg10
(lp920
I2285
aI3112
aI2375
aI3202
asg12
I1
sa(dp921
g5
I0
sg6
S'Left'
p922
sg8
S'pup'
p923
sg10
(lp924
I2313
aI2990
aI2403
aI3080
asg12
I1
sa(dp925
g5
I0
sg6
S'Left'
p926
sg8
S'adult_female'
p927
sg10
(lp928
I2315
aI2842
aI2405
aI2932
asg12
I1
sa(dp929
g5
I0
sg6
S'Left'
p930
sg8
S'pup'
p931
sg10
(lp932
I2325
aI2896
aI2415
aI2986
asg12
I1
sa(dp933
g5
I0
sg6
S'Left'
p934
sg8
S'adult_female'
p935
sg10
(lp936
I2326
aI3011
aI2416
aI3101
asg12
I1
sa(dp937
g5
I0
sg6
S'Left'
p938
sg8
S'pup'
p939
sg10
(lp940
I2328
aI2735
aI2418
aI2825
asg12
I1
sa(dp941
g5
I0
sg6
S'Left'
p942
sg8
S'adult_female'
p943
sg10
(lp944
I2333
aI2915
aI2423
aI3005
asg12
I1
sa(dp945
g5
I0
sg6
S'Left'
p946
sg8
S'adult_female'
p947
sg10
(lp948
I2337
aI2954
aI2427
aI3044
asg12
I1
sa(dp949
g5
I0
sg6
S'Left'
p950
sg8
S'pup'
p951
sg10
(lp952
I2366
aI2924
aI2456
aI3014
asg12
I1
sa(dp953
g5
I0
sg6
S'Left'
p954
sg8
S'pup'
p955
sg10
(lp956
I2376
aI2983
aI2466
aI3073
asg12
I1
sa(dp957
g5
I0
sg6
S'Left'
p958
sg8
S'juvenile'
p959
sg10
(lp960
I2376
aI3035
aI2466
aI3125
asg12
I1
sa(dp961
g5
I0
sg6
S'Left'
p962
sg8
S'adult_female'
p963
sg10
(lp964
I2387
aI2930
aI2477
aI3020
asg12
I1
sa(dp965
g5
I0
sg6
S'Left'
p966
sg8
S'adult_female'
p967
sg10
(lp968
I2395
aI3000
aI2485
aI3090
asg12
I1
sa(dp969
g5
I0
sg6
S'Left'
p970
sg8
S'adult_female'
p971
sg10
(lp972
I2419
aI2904
aI2509
aI2994
asg12
I1
sa(dp973
g5
I0
sg6
S'Left'
p974
sg8
S'adult_female'
p975
sg10
(lp976
I2424
aI2956
aI2514
aI3046
asg12
I1
sa(dp977
g5
I0
sg6
S'Left'
p978
sg8
S'pup'
p979
sg10
(lp980
I2432
aI2942
aI2522
aI3032
asg12
I1
sa(dp981
g5
I0
sg6
S'Left'
p982
sg8
S'adult_female'
p983
sg10
(lp984
I2435
aI2929
aI2525
aI3019
asg12
I1
sa(dp985
g5
I0
sg6
S'Left'
p986
sg8
S'pup'
p987
sg10
(lp988
I2439
aI2994
aI2529
aI3084
asg12
I1
sa(dp989
g5
I0
sg6
S'Left'
p990
sg8
S'adult_female'
p991
sg10
(lp992
I2446
aI2896
aI2536
aI2986
asg12
I1
sa(dp993
g5
I0
sg6
S'Left'
p994
sg8
S'adult_female'
p995
sg10
(lp996
I2452
aI3007
aI2542
aI3097
asg12
I1
sa(dp997
g5
I0
sg6
S'Left'
p998
sg8
S'pup'
p999
sg10
(lp1000
I2454
aI2970
aI2544
aI3060
asg12
I1
sa(dp1001
g5
I0
sg6
S'Left'
p1002
sg8
S'pup'
p1003
sg10
(lp1004
I2465
aI2927
aI2555
aI3017
asg12
I1
sa(dp1005
g5
I0
sg6
S'Left'
p1006
sg8
S'juvenile'
p1007
sg10
(lp1008
I2469
aI2877
aI2559
aI2967
asg12
I1
sa(dp1009
g5
I0
sg6
S'Left'
p1010
sg8
S'adult_male'
p1011
sg10
(lp1012
I2470
aI2703
aI2560
aI2793
asg12
I1
sa(dp1013
g5
I0
sg6
S'Left'
p1014
sg8
S'pup'
p1015
sg10
(lp1016
I2478
aI2869
aI2568
aI2959
asg12
I1
sa(dp1017
g5
I0
sg6
S'Left'
p1018
sg8
S'pup'
p1019
sg10
(lp1020
I2486
aI2787
aI2576
aI2877
asg12
I1
sa(dp1021
g5
I0
sg6
S'Left'
p1022
sg8
S'adult_female'
p1023
sg10
(lp1024
I2491
aI2936
aI2581
aI3026
asg12
I1
sa(dp1025
g5
I0
sg6
S'Left'
p1026
sg8
S'adult_female'
p1027
sg10
(lp1028
I2506
aI3004
aI2596
aI3094
asg12
I1
sa(dp1029
g5
I0
sg6
S'Left'
p1030
sg8
S'adult_female'
p1031
sg10
(lp1032
I2516
aI2915
aI2606
aI3005
asg12
I1
sa(dp1033
g5
I0
sg6
S'Left'
p1034
sg8
S'pup'
p1035
sg10
(lp1036
I2531
aI2933
aI2621
aI3023
asg12
I1
sas.